; Function Attrs: null_pointer_is_valid sspstrong uwtable
define internal i32 @dissect_ldap_T_bindResponse_matchedDN(i1 zeroext %0, ptr noundef %1, i32 noundef %2, ptr noundef %3, ptr noundef %4, i32 %5) #0 {
  %7 = alloca ptr, align 8
  call void @llvm.lifetime.start.p0(i64 8, ptr nonnull %7) #14
  store ptr null, ptr %7, align 8
  %8 = load i32, ptr @hf_ldap_matchedDN, align 4
  %9 = call i32 @dissect_ber_octet_string(i1 noundef zeroext false, ptr noundef %3, ptr noundef %4, ptr noundef %1, i32 noundef %2, i32 noundef %8, ptr noundef nonnull %7)
  %10 = load ptr, ptr %7, align 8
  %.not = icmp eq ptr %10, null
  br i1 %.not, label %34, label %11

11:                                               ; preds = %6
  %12 = call i32 @tvb_reported_length(ptr noundef nonnull %10)
  %13 = icmp ugt i32 %12, 6
  br i1 %13, label %14, label %34

14:                                               ; preds = %11
  %15 = load ptr, ptr %7, align 8
  %16 = call i32 @tvb_memeql(ptr noundef %15, i32 noundef 0, ptr noundef nonnull @.str.884, i64 noundef 7)
  %.not7 = icmp eq i32 %16, 0
  br i1 %.not7, label %17, label %34

17:                                               ; preds = %14
  %18 = getelementptr inbounds nuw i8, ptr %3, i64 16
  %.b3.i = load i1, ptr @do_protocolop, align 1
  br i1 %.b3.i, label %19, label %ldap_do_protocolop.exit

19:                                               ; preds = %17
  %20 = load ptr, ptr %18, align 8
  %21 = load i32, ptr @ProtocolOp, align 4
  %22 = call ptr @val_to_str(i32 noundef %21, ptr noundef nonnull @ldap_ProtocolOp_choice_vals, ptr noundef nonnull @.str.874)
  %23 = getelementptr inbounds nuw i8, ptr %20, i64 8
  %24 = load ptr, ptr %23, align 8
  %25 = load i32, ptr @MessageID, align 4
  call void (ptr, i32, ptr, ...) @col_append_fstr(ptr noundef %24, i32 noundef 25, ptr noundef nonnull @.str.875, ptr noundef %22, i32 noundef %25)
  %26 = load ptr, ptr @ldm_tree, align 8
  %.not.i = icmp eq ptr %26, null
  br i1 %.not.i, label %29, label %27

27:                                               ; preds = %19
  %28 = load i32, ptr @MessageID, align 4
  call void (ptr, ptr, ...) @proto_item_append_text(ptr noundef nonnull %26, ptr noundef nonnull @.str.876, ptr noundef %22, i32 noundef %28)
  br label %29

29:                                               ; preds = %27, %19
  store i1 false, ptr @do_protocolop, align 1
  br label %ldap_do_protocolop.exit

ldap_do_protocolop.exit:                          ; preds = %17, %29
  %30 = load ptr, ptr @ntlmssp_handle, align 8
  %31 = load ptr, ptr %7, align 8
  %32 = load ptr, ptr %18, align 8
  %33 = call i32 @call_dissector(ptr noundef %30, ptr noundef %31, ptr noundef %32, ptr noundef %4)
  br label %34

34:                                               ; preds = %ldap_do_protocolop.exit, %14, %11, %6
  call void @llvm.lifetime.end.p0(i64 8, ptr nonnull %7) #14
  ret i32 %9
}